; Function Attrs: nofree norecurse nosync nounwind memory(argmem: write) uwtable
define internal void @dc_127_32x32_c(ptr noundef writeonly captures(none) %0, i64 noundef %1, ptr readnone captures(none) %2, ptr readnone captures(none) %3) #4 {
  br label %5

5:                                                ; preds = %4, %5
  %.023 = phi i32 [ 0, %4 ], [ %7, %5 ]
  %.02122 = phi ptr [ %0, %4 ], [ %6, %5 ]
  %6 = getelementptr inbounds i8, ptr %.02122, i64 %1
  %7 = add nuw nsw i32 %.023, 1
  %exitcond.not = icmp eq i32 %7, 32
  tail call void @llvm.memset.p0.i64(ptr noundef nonnull align 4 dereferenceable(32) %.02122, i8 127, i64 32, i1 false)
  br i1 %exitcond.not, label %8, label %5, !llvm.loop !78

8:                                                ; preds = %5
  ret void
}